(dp0
S'alpha'
p1
cnumpy.core.multiarray
_reconstruct
p2
(cnumpy
ndarray
p3
(I0
tp4
S'b'
p5
tp6
Rp7
(I1
(I4
tp8
cnumpy
dtype
p9
(S'f8'
p10
I0
I1
tp11
Rp12
(I3
S'<'
p13
NNNI-1
I-1
I0
tp14
bI00
S'\x87`\x8f\xf3-\xf7\xed?\xcbZ~\x11>\xcc\xe9?\xf8\xcc\xf5\xbbY\x95\xea?~P\x83\xba\x02~\xe9?'
p15
tp16
bsS'beta'
p17
g2
(g3
(I0
tp18
g5
tp19
Rp20
(I1
(I4
tp21
g12
I00
S'\x0f\x18e@?\x07K@\x0c&\xca)g\xf6\x19@\xee\xa2T4-2\x1b@,m$$\xf67"@'
p22
tp23
bsS'sigmas'
p24
(lp25
F0.02
aF0.039148676411688635
aF0.0766309432393553
aF0.15
as.